; ModuleID = '37/952.c'
source_filename = "37/952.c"
target datalayout = "e-m:e-p270:32:32-p271:32:32-p272:64:64-i64:64-f80:128-n8:16:32:64-S128"
target triple = "x86_64-pc-linux-gnu"

@.str = private unnamed_addr constant [3 x i8] c"%d\00", align 1
@.str.1 = private unnamed_addr constant [3 x i8] c"%s\00", align 1
@.str.2 = private unnamed_addr constant [4 x i8] c"%c\0A\00", align 1
@.str.3 = private unnamed_addr constant [4 x i8] c"no\0A\00", align 1

; Function Attrs: noinline nounwind uwtable
define dso_local i32 @main() #0 {
  %1 = alloca i32, align 4
  %2 = alloca i32, align 4
  %3 = alloca i32, align 4
  %4 = alloca i32, align 4
  %5 = alloca i32, align 4
  %6 = alloca i32, align 4
  %7 = alloca [1000 x i8], align 16
  store i32 0, i32* %1, align 4
  %8 = call i32 (i8*, ...) @__isoc99_scanf(i8* getelementptr inbounds ([3 x i8], [3 x i8]* @.str, i64 0, i64 0), i32* %2)
  store i32 1, i32* %5, align 4
  br label %9

9:                                                ; preds = %73, %0
  %10 = load i32, i32* %5, align 4
  %11 = load i32, i32* %2, align 4
  %12 = icmp sle i32 %10, %11
  br i1 %12, label %13, label %76

13:                                               ; preds = %9
  %14 = call i32 (i8*, ...) @__isoc99_scanf(i8* getelementptr inbounds ([3 x i8], [3 x i8]* @.str.1, i64 0, i64 0), [1000 x i8]* %7)
  store i32 0, i32* %4, align 4
  br label %15

15:                                               ; preds = %60, %13
  %16 = load i32, i32* %4, align 4
  %17 = sext i32 %16 to i64
  %18 = getelementptr inbounds [1000 x i8], [1000 x i8]* %7, i64 0, i64 %17
  %19 = load i8, i8* %18, align 1
  %20 = sext i8 %19 to i32
  %21 = icmp ne i32 %20, 0
  br i1 %21, label %22, label %63

22:                                               ; preds = %15
  store i32 0, i32* %6, align 4
  store i32 0, i32* %3, align 4
  br label %23

23:                                               ; preds = %46, %22
  %24 = load i32, i32* %3, align 4
  %25 = sext i32 %24 to i64
  %26 = getelementptr inbounds [1000 x i8], [1000 x i8]* %7, i64 0, i64 %25
  %27 = load i8, i8* %26, align 1
  %28 = sext i8 %27 to i32
  %29 = icmp ne i32 %28, 0
  br i1 %29, label %30, label %49

30:                                               ; preds = %23
  %31 = load i32, i32* %3, align 4
  %32 = sext i32 %31 to i64
  %33 = getelementptr inbounds [1000 x i8], [1000 x i8]* %7, i64 0, i64 %32
  %34 = load i8, i8* %33, align 1
  %35 = sext i8 %34 to i32
  %36 = load i32, i32* %4, align 4
  %37 = sext i32 %36 to i64
  %38 = getelementptr inbounds [1000 x i8], [1000 x i8]* %7, i64 0, i64 %37
  %39 = load i8, i8* %38, align 1
  %40 = sext i8 %39 to i32
  %41 = icmp eq i32 %35, %40
  br i1 %41, label %42, label %45

42:                                               ; preds = %30
  %43 = load i32, i32* %6, align 4
  %44 = add nsw i32 %43, 1
  store i32 %44, i32* %6, align 4
  br label %45

45:                                               ; preds = %42, %30
  br label %46

46:                                               ; preds = %45
  %47 = load i32, i32* %3, align 4
  %48 = add nsw i32 %47, 1
  store i32 %48, i32* %3, align 4
  br label %23

49:                                               ; preds = %23
  %50 = load i32, i32* %6, align 4
  %51 = icmp eq i32 %50, 1
  br i1 %51, label %52, label %59

52:                                               ; preds = %49
  %53 = load i32, i32* %4, align 4
  %54 = sext i32 %53 to i64
  %55 = getelementptr inbounds [1000 x i8], [1000 x i8]* %7, i64 0, i64 %54
  %56 = load i8, i8* %55, align 1
  %57 = sext i8 %56 to i32
  %58 = call i32 (i8*, ...) @printf(i8* getelementptr inbounds ([4 x i8], [4 x i8]* @.str.2, i64 0, i64 0), i32 %57)
  br label %63

59:                                               ; preds = %49
  br label %60

60:                                               ; preds = %59
  %61 = load i32, i32* %4, align 4
  %62 = add nsw i32 %61, 1
  store i32 %62, i32* %4, align 4
  br label %15

63:                                               ; preds = %52, %15
  %64 = load i32, i32* %4, align 4
  %65 = sext i32 %64 to i64
  %66 = getelementptr inbounds [1000 x i8], [1000 x i8]* %7, i64 0, i64 %65
  %67 = load i8, i8* %66, align 1
  %68 = sext i8 %67 to i32
  %69 = icmp eq i32 %68, 0
  br i1 %69, label %70, label %72

70:                                               ; preds = %63
  %71 = call i32 (i8*, ...) @printf(i8* getelementptr inbounds ([4 x i8], [4 x i8]* @.str.3, i64 0, i64 0))
  br label %72

72:                                               ; preds = %70, %63
  br label %73

73:                                               ; preds = %72
  %74 = load i32, i32* %5, align 4
  %75 = add nsw i32 %74, 1
  store i32 %75, i32* %5, align 4
  br label %9

76:                                               ; preds = %9
  ret i32 0
}

declare dso_local i32 @__isoc99_scanf(i8*, ...) #1

declare dso_local i32 @printf(i8*, ...) #1


!llvm.module.flags = !{!0}
!llvm.ident = !{!1}

!0 = !{i32 1, !"wchar_size", i32 4}
!1 = !{!"clang version 10.0.0-4ubuntu1 "}
