; ModuleID = 'source-C-CXX/36/952.c'
source_filename = "source-C-CXX/36/952.c"
target datalayout = "e-m:e-p270:32:32-p271:32:32-p272:64:64-i64:64-f80:128-n8:16:32:64-S128"
target triple = "x86_64-pc-linux-gnu"

@.str = private unnamed_addr constant [3 x i8] c"%d\00", align 1
@.str.1 = private unnamed_addr constant [3 x i8] c"%s\00", align 1
@.str.2 = private unnamed_addr constant [4 x i8] c"%c\0A\00", align 1
@str = private unnamed_addr constant [3 x i8] c"no\00", align 1

; Function Attrs: nofree nounwind sspstrong uwtable
define dso_local i32 @main() local_unnamed_addr #0 {
  %1 = alloca i32, align 4
  %2 = alloca [1000 x i8], align 16
  %3 = bitcast i32* %1 to i8*
  call void @llvm.lifetime.start.p0i8(i64 4, i8* nonnull %3) #4
  %4 = getelementptr inbounds [1000 x i8], [1000 x i8]* %2, i64 0, i64 0
  call void @llvm.lifetime.start.p0i8(i64 1000, i8* nonnull %4) #4
  %5 = call i32 (i8*, ...) @__isoc99_scanf(i8* getelementptr inbounds ([3 x i8], [3 x i8]* @.str, i64 0, i64 0), i32* nonnull %1)
  %6 = load i32, i32* %1, align 4, !tbaa !5
  %7 = icmp slt i32 %6, 1
  br i1 %7, label %47, label %8

8:                                                ; preds = %0, %43
  %9 = phi i32 [ %44, %43 ], [ 1, %0 ]
  %10 = call i32 (i8*, ...) @__isoc99_scanf(i8* getelementptr inbounds ([3 x i8], [3 x i8]* @.str.1, i64 0, i64 0), [1000 x i8]* nonnull %2)
  %11 = load i8, i8* %4, align 16
  %12 = icmp eq i8 %11, 0
  br i1 %12, label %41, label %13

13:                                               ; preds = %8, %29
  %14 = phi i64 [ %30, %29 ], [ 0, %8 ]
  %15 = phi i8 [ %32, %29 ], [ %11, %8 ]
  br label %16

16:                                               ; preds = %13, %16
  %17 = phi i64 [ 0, %13 ], [ %23, %16 ]
  %18 = phi i8 [ %11, %13 ], [ %25, %16 ]
  %19 = phi i32 [ 0, %13 ], [ %22, %16 ]
  %20 = icmp eq i8 %18, %15
  %21 = zext i1 %20 to i32
  %22 = add nuw nsw i32 %19, %21
  %23 = add nuw nsw i64 %17, 1
  %24 = getelementptr inbounds [1000 x i8], [1000 x i8]* %2, i64 0, i64 %23
  %25 = load i8, i8* %24, align 1, !tbaa !9
  %26 = icmp eq i8 %25, 0
  br i1 %26, label %27, label %16, !llvm.loop !10

27:                                               ; preds = %16
  %28 = icmp eq i32 %22, 1
  br i1 %28, label %34, label %29

29:                                               ; preds = %27
  %30 = add nuw i64 %14, 1
  %31 = getelementptr inbounds [1000 x i8], [1000 x i8]* %2, i64 0, i64 %30
  %32 = load i8, i8* %31, align 1, !tbaa !9
  %33 = icmp eq i8 %32, 0
  br i1 %33, label %41, label %13, !llvm.loop !12

34:                                               ; preds = %27
  %35 = and i64 %14, 4294967295
  %36 = getelementptr inbounds [1000 x i8], [1000 x i8]* %2, i64 0, i64 %35
  %37 = sext i8 %15 to i32
  %38 = call i32 (i8*, ...) @printf(i8* nonnull dereferenceable(1) getelementptr inbounds ([4 x i8], [4 x i8]* @.str.2, i64 0, i64 0), i32 %37)
  %39 = load i8, i8* %36, align 1, !tbaa !9
  %40 = icmp eq i8 %39, 0
  br i1 %40, label %41, label %43

41:                                               ; preds = %29, %8, %34
  %42 = call i32 @puts(i8* nonnull dereferenceable(1) getelementptr inbounds ([3 x i8], [3 x i8]* @str, i64 0, i64 0))
  br label %43

43:                                               ; preds = %34, %41
  %44 = add nuw nsw i32 %9, 1
  %45 = load i32, i32* %1, align 4, !tbaa !5
  %46 = icmp slt i32 %9, %45
  br i1 %46, label %8, label %47, !llvm.loop !13

47:                                               ; preds = %43, %0
  call void @llvm.lifetime.end.p0i8(i64 1000, i8* nonnull %4) #4
  call void @llvm.lifetime.end.p0i8(i64 4, i8* nonnull %3) #4
  ret i32 0
}

; Function Attrs: argmemonly mustprogress nofree nosync nounwind willreturn
declare void @llvm.lifetime.start.p0i8(i64 immarg, i8* nocapture) #1

; Function Attrs: nofree nounwind
declare noundef i32 @__isoc99_scanf(i8* nocapture noundef readonly, ...) local_unnamed_addr #2

; Function Attrs: nofree nounwind
declare noundef i32 @printf(i8* nocapture noundef readonly, ...) local_unnamed_addr #2

; Function Attrs: argmemonly mustprogress nofree nosync nounwind willreturn
declare void @llvm.lifetime.end.p0i8(i64 immarg, i8* nocapture) #1

; Function Attrs: nofree nounwind
declare noundef i32 @puts(i8* nocapture noundef readonly) local_unnamed_addr #3


!llvm.module.flags = !{!0, !1, !2, !3}
!llvm.ident = !{!4}

!0 = !{i32 1, !"wchar_size", i32 4}
!1 = !{i32 7, !"PIC Level", i32 2}
!2 = !{i32 7, !"PIE Level", i32 2}
!3 = !{i32 7, !"uwtable", i32 1}
!4 = !{!"clang version 13.0.0"}
!5 = !{!6, !6, i64 0}
!6 = !{!"int", !7, i64 0}
!7 = !{!"omnipotent char", !8, i64 0}
!8 = !{!"Simple C/C++ TBAA"}
!9 = !{!7, !7, i64 0}
!10 = distinct !{!10, !11}
!11 = !{!"llvm.loop.mustprogress"}
!12 = distinct !{!12, !11}
!13 = distinct !{!13, !11}
